target datalayout = "e-m:e-p270:32:32-p271:32:32-p272:64:64-i64:64-i128:128-f80:128-n8:16:32:64-S128"
target triple = "x86_64-pc-linux-gnu"

%struct.pdf_struct = type { ptr, i32, i32, i32, i32, i32, ptr, i64, ptr, i64, i64, i64, ptr, ptr, i32, i32, ptr, i32, ptr, i32, %struct.pdf_stats, ptr, i32, i32 }
%struct.pdf_stats = type { i32, i32, i32, i32, i32, i32, i32, i32, i32, i32, i32, i32, i32, i32, i32, i32, i32, i32, i32, i32, i32, i32, i32, i32, i32, ptr, ptr, ptr, ptr, ptr, ptr, ptr, ptr }
%struct.pdf_obj = type { i32, i64, i32, i32, i32, i32, [64 x i32], ptr, i64, ptr, ptr, i8 }

@.str.26 = private unnamed_addr constant [1 x i8] zeroinitializer, align 1
@cli_debug_flag = external global i8, align 1
@.str.27 = private unnamed_addr constant [26 x i8] c"dictionary not terminated\00", align 1
@.str.28 = private unnamed_addr constant [23 x i8] c"escaped common pdfname\00", align 1
@.str.29 = private unnamed_addr constant [25 x i8] c"duplicate stream filters\00", align 1
@.str.30 = private unnamed_addr constant [16 x i8] c"bad pdf version\00", align 1
@.str.31 = private unnamed_addr constant [24 x i8] c"bad pdf header position\00", align 1
@.str.32 = private unnamed_addr constant [16 x i8] c"bad pdf trailer\00", align 1
@.str.33 = private unnamed_addr constant [18 x i8] c"too many pdf objs\00", align 1
@.str.34 = private unnamed_addr constant [19 x i8] c"bad deflate stream\00", align 1
@.str.35 = private unnamed_addr constant [25 x i8] c"bad deflate stream start\00", align 1
@.str.36 = private unnamed_addr constant [17 x i8] c"bad stream start\00", align 1
@.str.37 = private unnamed_addr constant [20 x i8] c"unknown filter used\00", align 1
@.str.38 = private unnamed_addr constant [17 x i8] c"bad ASCII decode\00", align 1
@.str.39 = private unnamed_addr constant [15 x i8] c"hex javascript\00", align 1
@.str.40 = private unnamed_addr constant [28 x i8] c"referencing nonexistent obj\00", align 1
@.str.41 = private unnamed_addr constant [16 x i8] c"has /OpenAction\00", align 1
@.str.42 = private unnamed_addr constant [18 x i8] c"has /LaunchAction\00", align 1
@.str.43 = private unnamed_addr constant [23 x i8] c"bad /Length, too small\00", align 1
@.str.44 = private unnamed_addr constant [17 x i8] c"PDF is encrypted\00", align 1
@.str.45 = private unnamed_addr constant [15 x i8] c"linearized PDF\00", align 1
@.str.46 = private unnamed_addr constant [28 x i8] c"more than 2 filters per obj\00", align 1
@.str.47 = private unnamed_addr constant [16 x i8] c"decryptable PDF\00", align 1
@.str.48 = private unnamed_addr constant [41 x i8] c"pdfobj_flag: %s flagged in object %u %u\0A\00", align 1

; Function Attrs: nounwind uwtable
define void @pdfobj_flag(ptr noundef %0, ptr noundef %1, i32 noundef %2) #0 {
  %4 = alloca ptr, align 8
  %5 = alloca ptr, align 8
  %6 = alloca i32, align 4
  %7 = alloca ptr, align 8
  store ptr %0, ptr %4, align 8
  store ptr %1, ptr %5, align 8
  store i32 %2, ptr %6, align 4
  store ptr @.str.26, ptr %7, align 8
  %8 = load i32, ptr %6, align 4
  %9 = shl i32 1, %8
  %10 = load ptr, ptr %4, align 8
  %11 = getelementptr inbounds %struct.pdf_struct, ptr %10, i32 0, i32 2
  %12 = load i32, ptr %11, align 4
  %13 = or i32 %12, %9
  store i32 %13, ptr %11, align 4
  %14 = load i8, ptr @cli_debug_flag, align 1
  %15 = icmp ne i8 %14, 0
  br i1 %15, label %17, label %16

16:                                               ; preds = %3
  br label %50

17:                                               ; preds = %3
  %18 = load i32, ptr %6, align 4
  switch i32 %18, label %40 [
    i32 10, label %19
    i32 11, label %20
    i32 4, label %21
    i32 0, label %22
    i32 1, label %23
    i32 2, label %24
    i32 3, label %25
    i32 5, label %26
    i32 6, label %27
    i32 7, label %28
    i32 13, label %29
    i32 8, label %30
    i32 12, label %31
    i32 9, label %32
    i32 15, label %33
    i32 20, label %34
    i32 16, label %35
    i32 17, label %36
    i32 18, label %37
    i32 14, label %38
    i32 19, label %39
  ]

19:                                               ; preds = %17
  store ptr @.str.27, ptr %7, align 8
  br label %40

20:                                               ; preds = %17
  store ptr @.str.28, ptr %7, align 8
  br label %40

21:                                               ; preds = %17
  store ptr @.str.29, ptr %7, align 8
  br label %40

22:                                               ; preds = %17
  store ptr @.str.30, ptr %7, align 8
  br label %40

23:                                               ; preds = %17
  store ptr @.str.31, ptr %7, align 8
  br label %40

24:                                               ; preds = %17
  store ptr @.str.32, ptr %7, align 8
  br label %40

25:                                               ; preds = %17
  store ptr @.str.33, ptr %7, align 8
  br label %40

26:                                               ; preds = %17
  store ptr @.str.34, ptr %7, align 8
  br label %40

27:                                               ; preds = %17
  store ptr @.str.35, ptr %7, align 8
  br label %40

28:                                               ; preds = %17
  store ptr @.str.36, ptr %7, align 8
  br label %40

29:                                               ; preds = %17
  store ptr @.str.37, ptr %7, align 8
  br label %40

30:                                               ; preds = %17
  store ptr @.str.38, ptr %7, align 8
  br label %40

31:                                               ; preds = %17
  store ptr @.str.39, ptr %7, align 8
  br label %40

32:                                               ; preds = %17
  store ptr @.str.40, ptr %7, align 8
  br label %40

33:                                               ; preds = %17
  store ptr @.str.41, ptr %7, align 8
  br label %40

34:                                               ; preds = %17
  store ptr @.str.42, ptr %7, align 8
  br label %40

35:                                               ; preds = %17
  store ptr @.str.43, ptr %7, align 8
  br label %40

36:                                               ; preds = %17
  store ptr @.str.44, ptr %7, align 8
  br label %40

37:                                               ; preds = %17
  store ptr @.str.45, ptr %7, align 8
  br label %40

38:                                               ; preds = %17
  store ptr @.str.46, ptr %7, align 8
  br label %40

39:                                               ; preds = %17
  store ptr @.str.47, ptr %7, align 8
  br label %40

40:                                               ; preds = %39, %38, %37, %36, %35, %34, %33, %32, %31, %30, %29, %28, %27, %26, %25, %24, %23, %22, %21, %20, %19, %17
  %41 = load ptr, ptr %7, align 8
  %42 = load ptr, ptr %5, align 8
  %43 = getelementptr inbounds %struct.pdf_obj, ptr %42, i32 0, i32 2
  %44 = load i32, ptr %43, align 8
  %45 = lshr i32 %44, 8
  %46 = load ptr, ptr %5, align 8
  %47 = getelementptr inbounds %struct.pdf_obj, ptr %46, i32 0, i32 2
  %48 = load i32, ptr %47, align 8
  %49 = and i32 %48, 255
  call void (ptr, ...) @cli_dbgmsg(ptr noundef @.str.48, ptr noundef %41, i32 noundef %45, i32 noundef %49)
  br label %50

50:                                               ; preds = %40, %16
  ret void
}