; Function Attrs: nounwind uwtable
define void @pdfobj_flag(ptr nocapture noundef %0, ptr nocapture noundef readonly %1, i32 noundef %2) local_unnamed_addr #0 {
  %4 = shl nuw i32 1, %2
  %5 = getelementptr inbounds i8, ptr %0, i64 12
  %6 = load i32, ptr %5, align 4
  %7 = or i32 %6, %4
  store i32 %7, ptr %5, align 4
  %8 = load i8, ptr @cli_debug_flag, align 1
  %.not = icmp eq i8 %8, 0
  br i1 %.not, label %17, label %9

9:                                                ; preds = %3
  %10 = icmp ult i32 %2, 21
  br i1 %10, label %switch.lookup, label %12

switch.lookup:                                    ; preds = %9
  %11 = zext nneg i32 %2 to i64
  %switch.gep = getelementptr inbounds [21 x ptr], ptr @switch.table.pdfobj_flag, i64 0, i64 %11
  %switch.load = load ptr, ptr %switch.gep, align 8
  br label %12

12:                                               ; preds = %switch.lookup, %9
  %.0 = phi ptr [ @.str.26, %9 ], [ %switch.load, %switch.lookup ]
  %13 = getelementptr inbounds i8, ptr %1, i64 16
  %14 = load i32, ptr %13, align 8
  %15 = lshr i32 %14, 8
  %16 = and i32 %14, 255
  tail call void (ptr, ...) @cli_dbgmsg(ptr noundef nonnull @.str.48, ptr noundef nonnull %.0, i32 noundef %15, i32 noundef %16) #22
  br label %17

17:                                               ; preds = %3, %12
  ret void
}